; Function Attrs: nounwind uwtable
define hidden void @zif_preg_last_error(ptr noundef readonly captures(none) %0, ptr noundef writeonly captures(none) %1) #0 {
  %3 = getelementptr inbounds nuw i8, ptr %0, i64 44
  %4 = load i32, ptr %3, align 4, !tbaa !11
  %.not = icmp eq i32 %4, 0
  br i1 %.not, label %6, label %5, !prof !55

5:                                                ; preds = %2
  tail call void @zend_wrong_parameters_none_error() #24
  br label %10

6:                                                ; preds = %2
  %7 = load i32, ptr getelementptr inbounds nuw (i8, ptr @pcre_globals, i64 76), align 4, !tbaa !18
  %8 = zext i32 %7 to i64
  store i64 %8, ptr %1, align 8, !tbaa !11
  %9 = getelementptr inbounds nuw i8, ptr %1, i64 8
  store i32 4, ptr %9, align 8, !tbaa !11
  br label %10

10:                                               ; preds = %6, %5
  ret void
}